; Function Attrs: nounwind uwtable
define internal fastcc void @push_subg(ptr noundef %0) unnamed_addr #0 {
  %2 = load i64, ptr getelementptr inbounds nuw (i8, ptr @Gstack, i64 16), align 8, !tbaa !32
  %3 = load i64, ptr getelementptr inbounds nuw (i8, ptr @Gstack, i64 24), align 8, !tbaa !59
  %4 = icmp eq i64 %2, %3
  br i1 %4, label %5, label %._crit_edge.i.i.i

._crit_edge.i.i.i:                                ; preds = %1
  %.pre.i.i.i = load i64, ptr getelementptr inbounds nuw (i8, ptr @Gstack, i64 8), align 8, !tbaa !58
  %.pre4.i.i.i = load ptr, ptr @Gstack, align 8, !tbaa !24
  br label %graph_stack_push_back.exit

5:                                                ; preds = %1
  %6 = icmp eq i64 %2, 0
  %7 = shl i64 %2, 1
  %spec.select.i.i.i = select i1 %6, i64 1, i64 %7
  %mul.ov.i.i.i = icmp ugt i64 %spec.select.i.i.i, 2305843009213693951
  br i1 %mul.ov.i.i.i, label %30, label %8

8:                                                ; preds = %5
  %9 = load ptr, ptr @Gstack, align 8, !tbaa !24
  %10 = shl nuw i64 %spec.select.i.i.i, 3
  %11 = tail call ptr @realloc(ptr noundef %9, i64 noundef %10) #32
  %12 = icmp eq ptr %11, null
  br i1 %12, label %30, label %13

13:                                               ; preds = %8
  %14 = load i64, ptr getelementptr inbounds nuw (i8, ptr @Gstack, i64 24), align 8, !tbaa !59
  %15 = getelementptr inbounds nuw ptr, ptr %11, i64 %14
  %16 = sub i64 %spec.select.i.i.i, %14
  %17 = shl i64 %16, 3
  tail call void @llvm.memset.p0.i64(ptr nonnull align 8 %15, i8 0, i64 %17, i1 false)
  %18 = load i64, ptr getelementptr inbounds nuw (i8, ptr @Gstack, i64 8), align 8, !tbaa !58
  %19 = load i64, ptr getelementptr inbounds nuw (i8, ptr @Gstack, i64 16), align 8, !tbaa !32
  %20 = add i64 %19, %18
  %21 = icmp ugt i64 %20, %14
  br i1 %21, label %22, label %28

22:                                               ; preds = %13
  %23 = sub i64 %14, %18
  %24 = sub i64 %spec.select.i.i.i, %23
  %25 = getelementptr inbounds nuw ptr, ptr %11, i64 %24
  %26 = getelementptr inbounds nuw ptr, ptr %11, i64 %18
  %27 = shl i64 %23, 3
  tail call void @llvm.memmove.p0.p0.i64(ptr nonnull align 8 %25, ptr nonnull align 8 %26, i64 %27, i1 false)
  store i64 %24, ptr getelementptr inbounds nuw (i8, ptr @Gstack, i64 8), align 8, !tbaa !58
  br label %28

28:                                               ; preds = %22, %13
  %29 = phi i64 [ %18, %13 ], [ %24, %22 ]
  store ptr %11, ptr @Gstack, align 8, !tbaa !24
  store i64 %spec.select.i.i.i, ptr getelementptr inbounds nuw (i8, ptr @Gstack, i64 24), align 8, !tbaa !59
  br label %graph_stack_push_back.exit

30:                                               ; preds = %8, %5
  %.2.i.ph.i.i = phi i32 [ 34, %5 ], [ 12, %8 ]
  %31 = load ptr, ptr @stderr, align 8, !tbaa !20
  %32 = tail call ptr @strerror(i32 noundef %.2.i.ph.i.i) #24
  %33 = tail call i32 (ptr, ptr, ...) @fprintf(ptr noundef %31, ptr noundef nonnull @.str.51, ptr noundef %32) #25
  tail call fastcc void @graphviz_exit() #26
  unreachable

graph_stack_push_back.exit:                       ; preds = %._crit_edge.i.i.i, %28
  %34 = phi ptr [ %.pre4.i.i.i, %._crit_edge.i.i.i ], [ %11, %28 ]
  %35 = phi i64 [ %3, %._crit_edge.i.i.i ], [ %spec.select.i.i.i, %28 ]
  %36 = phi i64 [ %2, %._crit_edge.i.i.i ], [ %19, %28 ]
  %37 = phi i64 [ %.pre.i.i.i, %._crit_edge.i.i.i ], [ %29, %28 ]
  %38 = add i64 %37, %36
  %39 = urem i64 %38, %35
  %40 = getelementptr inbounds nuw ptr, ptr %34, i64 %39
  store ptr %0, ptr %40, align 8, !tbaa !18
  %41 = add i64 %36, 1
  store i64 %41, ptr getelementptr inbounds nuw (i8, ptr @Gstack, i64 16), align 8, !tbaa !32
  %42 = icmp eq i64 %36, 0
  br i1 %42, label %43, label %44

43:                                               ; preds = %graph_stack_push_back.exit
  store ptr %0, ptr @root, align 8, !tbaa !18
  br label %44

44:                                               ; preds = %43, %graph_stack_push_back.exit
  store ptr %0, ptr @G, align 8, !tbaa !18
  ret void
}